; Function Attrs: nounwind uwtable
define dso_local ptr @t_reftable_strbuf_writer(ptr noundef %0, ptr noundef %1) local_unnamed_addr #0 {
  %3 = alloca ptr, align 8
  call void @llvm.lifetime.start.p0(i64 8, ptr nonnull %3) #7
  %4 = call i32 @reftable_writer_new(ptr noundef nonnull %3, ptr noundef nonnull @strbuf_writer_write, ptr noundef nonnull @strbuf_writer_flush, ptr noundef %0, ptr noundef %1) #7
  %.not = icmp eq i32 %4, 0
  %5 = zext i1 %.not to i32
  %6 = call i32 @check_bool_loc(ptr noundef nonnull @.str, ptr noundef nonnull @.str.1, i32 noundef %5) #7
  %7 = load ptr, ptr %3, align 8, !tbaa !4
  call void @llvm.lifetime.end.p0(i64 8, ptr nonnull %3) #7
  ret ptr %7
}